target datalayout = "e-m:e-p270:32:32-p271:32:32-p272:64:64-i64:64-i128:128-f80:128-n8:16:32:64-S128"
target triple = "x86_64-pc-linux-gnu"

%struct.packet_range_tag = type { i32, i8, i8, i8, ptr, i32, ptr, i32, ptr, i32, i32, i32, i32, i32, i32, i32, i32, i32, i32, i32, i32, i32, i32, i32, i32, i32, i32, i32, i32, i32, i32, i32, i32, i32, i32, i32, ptr, ptr, ptr, ptr, ptr, ptr, ptr, ptr, i8, i32 }

; Function Attrs: nounwind null_pointer_is_valid sspstrong uwtable
define hidden void @packet_range_process_init(ptr noundef %0) #4 {
  %2 = alloca ptr, align 8
  store ptr %0, ptr %2, align 8
  %3 = load ptr, ptr %2, align 8
  %4 = getelementptr inbounds nuw %struct.packet_range_tag, ptr %3, i32 0, i32 44
  store i8 0, ptr %4, align 8
  %5 = load ptr, ptr %2, align 8
  %6 = getelementptr inbounds nuw %struct.packet_range_tag, ptr %5, i32 0, i32 1
  %7 = load i8, ptr %6, align 4, !range !11, !noundef !12
  %8 = trunc i8 %7 to i1
  %9 = zext i1 %8 to i32
  %10 = icmp eq i32 %9, 0
  br i1 %10, label %11, label %17

11:                                               ; preds = %1
  %12 = load ptr, ptr %2, align 8
  %13 = getelementptr inbounds nuw %struct.packet_range_tag, ptr %12, i32 0, i32 9
  %14 = load i32, ptr %13, align 8
  %15 = load ptr, ptr %2, align 8
  %16 = getelementptr inbounds nuw %struct.packet_range_tag, ptr %15, i32 0, i32 45
  store i32 %14, ptr %16, align 4
  br label %23

17:                                               ; preds = %1
  %18 = load ptr, ptr %2, align 8
  %19 = getelementptr inbounds nuw %struct.packet_range_tag, ptr %18, i32 0, i32 24
  %20 = load i32, ptr %19, align 4
  %21 = load ptr, ptr %2, align 8
  %22 = getelementptr inbounds nuw %struct.packet_range_tag, ptr %21, i32 0, i32 45
  store i32 %20, ptr %22, align 4
  br label %23

23:                                               ; preds = %17, %11
  ret void
}