; Function Attrs: mustprogress nofree norecurse nosync nounwind null_pointer_is_valid sspstrong willreturn memory(argmem: readwrite) uwtable
define hidden void @packet_range_process_init(ptr noundef captures(none) initializes((224, 225)) %0) local_unnamed_addr #4 {
  %2 = getelementptr inbounds nuw i8, ptr %0, i64 224
  store i8 0, ptr %2, align 8
  %3 = getelementptr inbounds nuw i8, ptr %0, i64 4
  %4 = load i8, ptr %3, align 4, !range !11, !noundef !12
  %5 = icmp eq i8 %4, 0
  %. = select i1 %5, i64 48, i64 108
  %6 = getelementptr inbounds nuw i8, ptr %0, i64 %.
  %.sink = load i32, ptr %6, align 4
  %7 = getelementptr inbounds nuw i8, ptr %0, i64 228
  store i32 %.sink, ptr %7, align 4
  ret void
}